; Function Attrs: mustprogress uwtable
define dso_local void @_ZN4Json13valueToStringB5cxx11Em(ptr dead_on_unwind noalias writable sret(%"class.std::__cxx11::basic_string") align 8 %0, i64 noundef %1) local_unnamed_addr #0 personality ptr @__gxx_personality_v0 {
  %3 = alloca [25 x i8], align 16
  %4 = alloca %"class.std::allocator", align 1
  %5 = getelementptr inbounds i8, ptr %3, i64 24
  store i8 0, ptr %5, align 8
  br label %6

6:                                                ; preds = %6, %2
  %.0 = phi ptr [ %5, %2 ], [ %10, %6 ]
  %.0.i = phi i64 [ %1, %2 ], [ %11, %6 ]
  %7 = urem i64 %.0.i, 10
  %8 = trunc i64 %7 to i8
  %9 = or disjoint i8 %8, 48
  %10 = getelementptr inbounds i8, ptr %.0, i64 -1
  store i8 %9, ptr %10, align 1
  %11 = udiv i64 %.0.i, 10
  %.not.i = icmp ult i64 %.0.i, 10
  br i1 %.not.i, label %_ZN4JsonL12uintToStringEmRPc.exit, label %6, !llvm.loop !5

_ZN4JsonL12uintToStringEmRPc.exit:                ; preds = %6
  call void @_ZNSaIcEC1Ev(ptr noundef nonnull align 1 dereferenceable(1) %4) #19
  %12 = invoke noundef ptr @_ZNSt7__cxx1112basic_stringIcSt11char_traitsIcESaIcEE13_M_local_dataEv(ptr noundef nonnull align 8 dereferenceable(32) %0)
          to label %.noexc unwind label %17

.noexc:                                           ; preds = %_ZN4JsonL12uintToStringEmRPc.exit
  invoke void @_ZNSt7__cxx1112basic_stringIcSt11char_traitsIcESaIcEE12_Alloc_hiderC1EPcRKS3_(ptr noundef nonnull align 8 dereferenceable(8) %0, ptr noundef %12, ptr noundef nonnull align 1 dereferenceable(1) %4)
          to label %.noexc2 unwind label %17

13:                                               ; preds = %.noexc2
  %14 = landingpad { ptr, i32 }
          cleanup
  call void @_ZNSaIcED2Ev(ptr noundef nonnull align 1 dereferenceable(1) %0) #19
  br label %.body

.noexc2:                                          ; preds = %.noexc
  %15 = call noundef i64 @strlen(ptr noundef nonnull dereferenceable(1) %10) #19
  %16 = getelementptr inbounds i8, ptr %10, i64 %15
  invoke void @_ZNSt7__cxx1112basic_stringIcSt11char_traitsIcESaIcEE12_M_constructIPKcEEvT_S8_St20forward_iterator_tag(ptr noundef nonnull align 8 dereferenceable(32) %0, ptr noundef nonnull %10, ptr noundef nonnull %16)
          to label %_ZNSt7__cxx1112basic_stringIcSt11char_traitsIcESaIcEEC2IS3_EEPKcRKS3_.exit unwind label %13

_ZNSt7__cxx1112basic_stringIcSt11char_traitsIcESaIcEEC2IS3_EEPKcRKS3_.exit: ; preds = %.noexc2
  call void @_ZNSaIcED1Ev(ptr noundef nonnull align 1 dereferenceable(1) %4) #19
  ret void

17:                                               ; preds = %.noexc, %_ZN4JsonL12uintToStringEmRPc.exit
  %18 = landingpad { ptr, i32 }
          cleanup
  br label %.body

.body:                                            ; preds = %13, %17
  %eh.lpad-body = phi { ptr, i32 } [ %18, %17 ], [ %14, %13 ]
  call void @_ZNSaIcED1Ev(ptr noundef nonnull align 1 dereferenceable(1) %4) #19
  resume { ptr, i32 } %eh.lpad-body
}